; ModuleID = '1/1923.c'
source_filename = "1/1923.c"
target datalayout = "e-m:e-p270:32:32-p271:32:32-p272:64:64-i64:64-f80:128-n8:16:32:64-S128"
target triple = "x86_64-pc-linux-gnu"

@.str = private unnamed_addr constant [3 x i8] c"%d\00", align 1
@.str.1 = private unnamed_addr constant [4 x i8] c"%d\0A\00", align 1

; Function Attrs: noinline nounwind uwtable
define dso_local i32 @digui(i32 %0, i32 %1, i32 %2) #0 {
  %4 = alloca i32, align 4
  %5 = alloca i32, align 4
  %6 = alloca i32, align 4
  %7 = alloca i32, align 4
  %8 = alloca i32, align 4
  store i32 %0, i32* %5, align 4
  store i32 %1, i32* %6, align 4
  store i32 %2, i32* %7, align 4
  %9 = load i32, i32* %7, align 4
  %10 = add nsw i32 %9, 1
  store i32 %10, i32* %7, align 4
  %11 = load i32, i32* %5, align 4
  %12 = sitofp i32 %11 to double
  %13 = call double @sqrt(double %12) #3
  %14 = load i32, i32* %6, align 4
  %15 = sitofp i32 %14 to double
  %16 = fcmp olt double %13, %15
  br i1 %16, label %17, label %19

17:                                               ; preds = %3
  %18 = load i32, i32* %7, align 4
  store i32 %18, i32* %4, align 4
  br label %46

19:                                               ; preds = %3
  %20 = load i32, i32* %6, align 4
  store i32 %20, i32* %8, align 4
  br label %21

21:                                               ; preds = %41, %19
  %22 = load i32, i32* %8, align 4
  %23 = sitofp i32 %22 to double
  %24 = load i32, i32* %5, align 4
  %25 = sitofp i32 %24 to double
  %26 = call double @sqrt(double %25) #3
  %27 = fcmp ole double %23, %26
  br i1 %27, label %28, label %44

28:                                               ; preds = %21
  %29 = load i32, i32* %5, align 4
  %30 = load i32, i32* %8, align 4
  %31 = srem i32 %29, %30
  %32 = icmp eq i32 %31, 0
  br i1 %32, label %33, label %40

33:                                               ; preds = %28
  %34 = load i32, i32* %5, align 4
  %35 = load i32, i32* %8, align 4
  %36 = sdiv i32 %34, %35
  %37 = load i32, i32* %8, align 4
  %38 = load i32, i32* %7, align 4
  %39 = call i32 @digui(i32 %36, i32 %37, i32 %38)
  store i32 %39, i32* %7, align 4
  br label %40

40:                                               ; preds = %33, %28
  br label %41

41:                                               ; preds = %40
  %42 = load i32, i32* %8, align 4
  %43 = add nsw i32 %42, 1
  store i32 %43, i32* %8, align 4
  br label %21

44:                                               ; preds = %21
  %45 = load i32, i32* %7, align 4
  store i32 %45, i32* %4, align 4
  br label %46

46:                                               ; preds = %44, %17
  %47 = load i32, i32* %4, align 4
  ret i32 %47
}

; Function Attrs: nounwind
declare dso_local double @sqrt(double) #1

; Function Attrs: noinline nounwind uwtable
define dso_local void @main() #0 {
  %1 = alloca i32, align 4
  %2 = alloca i32, align 4
  %3 = call i32 (i8*, ...) @__isoc99_scanf(i8* getelementptr inbounds ([3 x i8], [3 x i8]* @.str, i64 0, i64 0), i32* %1)
  br label %4

4:                                                ; preds = %8, %0
  %5 = load i32, i32* %1, align 4
  %6 = add nsw i32 %5, -1
  store i32 %6, i32* %1, align 4
  %7 = icmp ne i32 %5, 0
  br i1 %7, label %8, label %13

8:                                                ; preds = %4
  %9 = call i32 (i8*, ...) @__isoc99_scanf(i8* getelementptr inbounds ([3 x i8], [3 x i8]* @.str, i64 0, i64 0), i32* %2)
  %10 = load i32, i32* %2, align 4
  %11 = call i32 @digui(i32 %10, i32 2, i32 0)
  %12 = call i32 (i8*, ...) @printf(i8* getelementptr inbounds ([4 x i8], [4 x i8]* @.str.1, i64 0, i64 0), i32 %11)
  br label %4

13:                                               ; preds = %4
  ret void
}

declare dso_local i32 @__isoc99_scanf(i8*, ...) #2

declare dso_local i32 @printf(i8*, ...) #2


!llvm.module.flags = !{!0}
!llvm.ident = !{!1}

!0 = !{i32 1, !"wchar_size", i32 4}
!1 = !{!"clang version 10.0.0-4ubuntu1 "}
